

Microchip Technology PIC18 LITE Macro Assembler V1.33 build 59893 
                                                                                               Mon Nov 10 09:26:39 2014

Microchip Technology Omniscient Code Generator (Lite mode) build 59893
     1                           	processor	18F4520
     2                           	fnconf	rparam,??,?,0
     3                           	opt	pw 120
     4                           	opt	lm
     5                           	psect	idataCOMRAM,global,class=CODE,delta=1
     6                           	psect	cinit,global,reloc=2,class=CODE,delta=1
     7                           	psect	bssCOMRAM,global,class=COMRAM,space=1,delta=1
     8                           	psect	dataCOMRAM,global,class=COMRAM,space=1,delta=1
     9                           	psect	cstackCOMRAM,global,class=COMRAM,space=1,delta=1
    10                           	psect	text0,global,reloc=2,class=CODE,delta=1
    11                           	psect	text1,global,reloc=2,class=CODE,delta=1
    12                           	psect	text2,global,reloc=2,class=CODE,delta=1
    13                           	psect	text3,global,reloc=2,class=CODE,delta=1
    14                           	psect	text4,global,reloc=2,class=CODE,delta=1
    15                           	psect	text5,global,reloc=2,class=CODE,delta=1
    16                           	psect	text6,global,reloc=2,class=CODE,delta=1
    17                           	psect	intcode,global,reloc=2,class=CODE,delta=1
    18                           	psect	intcode_body,global,reloc=2,class=CODE,delta=1
    19                           	psect	text8,global,reloc=2,class=CODE,delta=1
    20                           	psect	text9,global,reloc=2,class=CODE,delta=1
    21                           	psect	intsave_regs,global,class=BIGRAM,space=1,delta=1
    22                           	psect	rparam,global,class=COMRAM,space=1,delta=1
    23  0000                     
    24                           	psect	idataCOMRAM
    25  0001C2                     __pidataCOMRAM:
    26                           	opt stack 0
    27                           
    28                           ;initializer for _sevenSegPattern
    29  0001C2  EE                 	db	238
    30  0001C3  82                 	db	130
    31  0001C4  DC                 	db	220
    32  0001C5  D6                 	db	214
    33  0001C6  B2                 	db	178
    34  0001C7  76                 	db	118
    35  0001C8  7E                 	db	126
    36  0001C9  C2                 	db	194
    37  0001CA  FE                 	db	254
    38  0001CB  F6                 	db	246
    39  0001CC  FA                 	db	250
    40  0001CD  3E                 	db	62
    41  0001CE  6C                 	db	108
    42  0001CF  9E                 	db	158
    43  0001D0  7C                 	db	124
    44  0001D1  78                 	db	120
    45  0000                     _INTCONbits	set	4082
    46  0000                     _OSCCONbits	set	4051
    47  0000                     _PIE1	set	3997
    48  0000                     _PIE1bits	set	3997
    49  0000                     _PIR1bits	set	3998
    50  0000                     _PORTCbits	set	3970
    51  0000                     _PORTDbits	set	3971
    52  0000                     _RCREG	set	4014
    53  0000                     _RCSTA	set	4011
    54  0000                     _RCSTAbits	set	4011
    55  0000                     _SPBRG	set	4015
    56  0000                     _SPBRGH	set	4016
    57  0000                     _SSPBUF	set	4041
    58  0000                     _SSPCON1	set	4038
    59  0000                     _SSPCON1bits	set	4038
    60  0000                     _SSPSTAT	set	4039
    61  0000                     _SSPSTATbits	set	4039
    62  0000                     _T0CON	set	4053
    63  0000                     _T0CONbits	set	4053
    64  0000                     _TMR0H	set	4055
    65  0000                     _TMR0L	set	4054
    66  0000                     _TRISAbits	set	3986
    67  0000                     _TRISCbits	set	3988
    68  0000                     _TRISDbits	set	3989
    69  0000                     _TXREG	set	4013
    70  0000                     _TXSTA	set	4012
    71  0000                     _TXSTAbits	set	4012
    72                           
    73                           ; #config settings
    74  0000                     
    75                           	psect	cinit
    76  0000F0                     __pcinit:
    77                           	opt stack 0
    78  0000F0                     start_initialization:
    79                           	opt stack 0
    80  0000F0                     __initialization:
    81                           	opt stack 0
    82                           
    83                           ; Clear objects allocated to COMRAM (11 bytes)
    84  0000F0  EE00  F039         	lfsr	0,__pbssCOMRAM
    85  0000F4  0E0B               	movlw	11
    86  0000F6                     clear_0:
    87  0000F6  6AEE               	clrf	postinc0,c
    88  0000F8  06E8               	decf	wreg,f,c
    89  0000FA  E1FD               	bnz	clear_0
    90                           
    91                           ; Initialize objects allocated to COMRAM (16 bytes)
    92                           ; load TBLPTR registers with __pidataCOMRAM
    93  0000FC  0EC2               	movlw	low __pidataCOMRAM
    94  0000FE  6EF6               	movwf	tblptrl,c
    95  000100  0E01               	movlw	high __pidataCOMRAM
    96  000102  6EF7               	movwf	tblptrh,c
    97  000104  0E00               	movlw	low (__pidataCOMRAM shr (0+16))
    98  000106  6EF8               	movwf	tblptru,c
    99  000108  EE00  F029         	lfsr	0,__pdataCOMRAM
   100  00010C  EE10 F010          	lfsr	1,16
   101  000110                     copy_data0:
   102  000110  0009               	tblrd		*+
   103  000112  CFF5 FFEE          	movff	tablat,postinc0
   104  000116  50E5               	movf	postdec1,w,c
   105  000118  50E1               	movf	fsr1l,w,c
   106  00011A  E1FA               	bnz	copy_data0
   107  00011C                     end_of_initialization:
   108                           	opt stack 0
   109  00011C                     __end_of__initialization:
   110                           	opt stack 0
   111  00011C  0E00               	movlw	low (__Lmediumconst shr (0+16))
   112  00011E  6EF8               	movwf	tblptru,c
   113  000120  0100               	movlb	0
   114  000122  EFC6  F000         	goto	_main	;jump to C main() function
   115                           tblptru	equ	0xFF8
   116                           tblptrh	equ	0xFF7
   117                           tblptrl	equ	0xFF6
   118                           tablat	equ	0xFF5
   119                           postinc0	equ	0xFEE
   120                           wreg	equ	0xFE8
   121                           postdec1	equ	0xFE5
   122                           fsr1l	equ	0xFE1
   123                           
   124                           	psect	bssCOMRAM
   125  000039                     __pbssCOMRAM:
   126                           	opt stack 0
   127  000039                     _clock:
   128                           	opt stack 0
   129  000039                     	ds	4
   130  00003D                     _USART_Status:
   131                           	opt stack 0
   132  00003D                     	ds	1
   133  00003E                     _bankSelectReg:
   134                           	opt stack 0
   135  00003E                     	ds	1
   136  00003F                     _statusReg:
   137                           	opt stack 0
   138  00003F                     	ds	1
   139  000040                     _tosHi:
   140                           	opt stack 0
   141  000040                     	ds	1
   142  000041                     _tosLo:
   143                           	opt stack 0
   144  000041                     	ds	1
   145  000042                     _tosUp:
   146                           	opt stack 0
   147  000042                     	ds	1
   148  000043                     _workingReg:
   149                           	opt stack 0
   150  000043                     	ds	1
   151                           tblptru	equ	0xFF8
   152                           tblptrh	equ	0xFF7
   153                           tblptrl	equ	0xFF6
   154                           tablat	equ	0xFF5
   155                           postinc0	equ	0xFEE
   156                           wreg	equ	0xFE8
   157                           postdec1	equ	0xFE5
   158                           fsr1l	equ	0xFE1
   159                           
   160                           	psect	dataCOMRAM
   161  000029                     __pdataCOMRAM:
   162                           	opt stack 0
   163  000029                     _sevenSegPattern:
   164                           	opt stack 0
   165  000029                     	ds	16
   166                           tblptru	equ	0xFF8
   167                           tblptrh	equ	0xFF7
   168                           tblptrl	equ	0xFF6
   169                           tablat	equ	0xFF5
   170                           postinc0	equ	0xFEE
   171                           wreg	equ	0xFE8
   172                           postdec1	equ	0xFE5
   173                           fsr1l	equ	0xFE1
   174                           
   175                           	psect	cstackCOMRAM
   176  000001                     __pcstackCOMRAM:
   177                           	opt stack 0
   178  000001                     ??_interruptIsr:
   179                           
   180                           ; 0 bytes @ 0x0
   181  000001                     	ds	14
   182  00000F                     OpenTimer0@config:
   183                           	opt stack 0
   184  00000F                     initUsartLoopback@loopbackData:
   185                           	opt stack 0
   186  00000F                     init7Segment@data:
   187                           	opt stack 0
   188  00000F                     OpenUSART@spbrg:
   189                           	opt stack 0
   190                           
   191                           ; 2 bytes @ 0xE
   192  00000F                     	ds	1
   193  000010                     
   194                           ; 0 bytes @ 0xF
   195  000010                     	ds	1
   196  000011                     ??_OpenUSART:
   197  000011                     
   198                           ; 0 bytes @ 0x10
   199  000011                     	ds	3
   200  000014                     OpenUSART@config:
   201                           	opt stack 0
   202                           
   203                           ; 1 bytes @ 0x13
   204  000014                     	ds	1
   205  000015                     
   206                           ; 2 bytes @ 0x14
   207  000015                     	ds	2
   208  000017                     
   209                           ; 3 bytes @ 0x16
   210  000017                     	ds	3
   211  00001A                     main@led2Data:
   212                           	opt stack 0
   213                           
   214                           ; 7 bytes @ 0x19
   215  00001A                     	ds	7
   216  000021                     main@sevenSegData:
   217                           	opt stack 0
   218                           
   219                           ; 6 bytes @ 0x20
   220  000021                     	ds	6
   221  000027                     main@loopbackData:
   222                           	opt stack 0
   223                           
   224                           ; 2 bytes @ 0x26
   225  000027                     	ds	2
   226                           tblptru	equ	0xFF8
   227                           tblptrh	equ	0xFF7
   228                           tblptrl	equ	0xFF6
   229                           tablat	equ	0xFF5
   230                           postinc0	equ	0xFEE
   231                           wreg	equ	0xFE8
   232                           postdec1	equ	0xFE5
   233                           fsr1l	equ	0xFE1
   234                           
   235 ;;
   236 ;;Main: autosize = 0, tempsize = 0, incstack = 0, save=0
   237 ;;
   238 ;; *************** function _main *****************
   239 ;; Defined at:
   240 ;;		line 40 in file "../src/PIC18/Main.c"
   241 ;; Parameters:    Size  Location     Type
   242 ;;  argc            2   20[COMRAM] int 
   243 ;;  argv            3   22[COMRAM] PTR PTR unsigned char 
   244 ;; Auto vars:     Size  Location     Type
   245 ;;  led2Data        7   25[COMRAM] struct Led2Data
   246 ;;  sevenSegData    6   32[COMRAM] struct SevenSegmentData
   247 ;;  loopbackData    2   38[COMRAM] struct LoopbackData
   248 ;; Return value:  Size  Location     Type
   249 ;;                  2   20[COMRAM] int 
   250 ;; Registers used:
   251 ;;		wreg, fsr2l, fsr2h, status,2, status,0, cstack
   252 ;; Tracked objects:
   253 ;;		On entry : 0/0
   254 ;;		On exit  : 0/0
   255 ;;		Unchanged: 0/0
   256 ;; Data sizes:     COMRAM   BANK0   BANK1   BANK2   BANK3   BANK4   BANK5
   257 ;;      Params:         5       0       0       0       0       0       0
   258 ;;      Locals:        15       0       0       0       0       0       0
   259 ;;      Temps:          0       0       0       0       0       0       0
   260 ;;      Totals:        20       0       0       0       0       0       0
   261 ;;Total ram usage:       20 bytes
   262 ;; Hardware stack levels required when called:    5
   263 ;; This function calls:
   264 ;;		_OpenUSART
   265 ;;		_configureLED
   266 ;;		_init7Segment
   267 ;;		_initClock
   268 ;;		_initUsartLoopback
   269 ;; This function is called by:
   270 ;;		Startup code after reset
   271 ;; This function uses a non-reentrant model
   272 ;;
   273                           
   274                           	psect	text0
   275  00018C                     __ptext0:
   276                           	opt stack 0
   277  00018C                     _main:
   278                           	opt stack 26
   279                           
   280                           ;Main.c: 41: LoopbackData loopbackData;
   281                           ;Main.c: 43: Led2Data led2Data;
   282                           ;Main.c: 44: SevenSegmentData sevenSegData;
   283                           ;Main.c: 46: (OSCCONbits.IRCF = 7);
   284                           
   285                           ;incstack = 0
   286  00018C  88D3               	bsf	4051,4,c	;volatile
   287  00018E  8AD3               	bsf	4051,5,c	;volatile
   288  000190  8CD3               	bsf	4051,6,c	;volatile
   289                           
   290                           ;Main.c: 47: OpenUSART(0b01111111 & 0b10111111 & 0b11111110 & 0b11111101 & 0b11111111 & 
      +                          0b11111111, 51);;
   291  000192  0E00               	movlw	0
   292  000194  6E10               	movwf	OpenUSART@spbrg+1,c
   293  000196  0E33               	movlw	51
   294  000198  6E0F               	movwf	OpenUSART@spbrg,c
   295  00019A  0E3C               	movlw	60
   296  00019C  EC44  F000         	call	_OpenUSART
   297                           
   298                           ;Main.c: 49: initClock();
   299  0001A0  ECD4  F000         	call	_initClock	;wreg free
   300  0001A4                     l58:
   301  0001A4  D7FF               	goto	l58
   302  0001A6                     l61:
   303  0001A6  D7FF               	goto	l61
   304  0001A8                     __end_of_main:
   305                           	opt stack 0
   306                           tblptru	equ	0xFF8
   307                           tblptrh	equ	0xFF7
   308                           tblptrl	equ	0xFF6
   309                           tablat	equ	0xFF5
   310                           postinc0	equ	0xFEE
   311                           wreg	equ	0xFE8
   312                           postdec1	equ	0xFE5
   313                           fsr1l	equ	0xFE1
   314                           
   315 ;; *************** function _initUsartLoopback *****************
   316 ;; Defined at:
   317 ;;		line 7 in file "../src/PIC18/UsartLoopback.c"
   318 ;; Parameters:    Size  Location     Type
   319 ;;  loopbackData    2   14[COMRAM] PTR struct LoopbackData
   320 ;;		 -> main@loopbackData(2), 
   321 ;; Auto vars:     Size  Location     Type
   322 ;;		None
   323 ;; Return value:  Size  Location     Type
   324 ;;		None               void
   325 ;; Registers used:
   326 ;;		wreg, fsr2l, fsr2h, status,2, status,0
   327 ;; Tracked objects:
   328 ;;		On entry : 0/0
   329 ;;		On exit  : 0/0
   330 ;;		Unchanged: 0/0
   331 ;; Data sizes:     COMRAM   BANK0   BANK1   BANK2   BANK3   BANK4   BANK5
   332 ;;      Params:         2       0       0       0       0       0       0
   333 ;;      Locals:         0       0       0       0       0       0       0
   334 ;;      Temps:          0       0       0       0       0       0       0
   335 ;;      Totals:         2       0       0       0       0       0       0
   336 ;;Total ram usage:        2 bytes
   337 ;; Hardware stack levels used:    1
   338 ;; Hardware stack levels required when called:    3
   339 ;; This function calls:
   340 ;;		Nothing
   341 ;; This function is called by:
   342 ;;		_main
   343 ;; This function uses a non-reentrant model
   344 ;;
   345                           
   346                           	psect	text1
   347  00016E                     __ptext1:
   348                           	opt stack 0
   349  00016E                     _initUsartLoopback:
   350                           	opt stack 27
   351                           
   352                           ;UsartLoopback.c: 8: loopbackData->state = WAIT_DATA;
   353                           
   354                           ;incstack = 0
   355  00016E  C00F  FFD9         	movff	initUsartLoopback@loopbackData,fsr2l
   356  000172  C010  FFDA         	movff	initUsartLoopback@loopbackData+1,fsr2h
   357  000176  0E00               	movlw	0
   358  000178  6EDF               	movwf	indf2,c
   359                           
   360                           ;UsartLoopback.c: 9: loopbackData->dataByte = 0;
   361  00017A  EE20 F001          	lfsr	2,1
   362  00017E  500F               	movf	initUsartLoopback@loopbackData,w,c
   363  000180  26D9               	addwf	fsr2l,f,c
   364  000182  5010               	movf	initUsartLoopback@loopbackData+1,w,c
   365  000184  22DA               	addwfc	fsr2h,f,c
   366  000186  0E00               	movlw	0
   367  000188  6EDF               	movwf	indf2,c
   368  00018A  0012               	return	
   369  00018C                     __end_of_initUsartLoopback:
   370                           	opt stack 0
   371                           tblptru	equ	0xFF8
   372                           tblptrh	equ	0xFF7
   373                           tblptrl	equ	0xFF6
   374                           tablat	equ	0xFF5
   375                           postinc0	equ	0xFEE
   376                           wreg	equ	0xFE8
   377                           postdec1	equ	0xFE5
   378                           fsr1l	equ	0xFE1
   379                           indf2	equ	0xFDF
   380                           fsr2h	equ	0xFDA
   381                           fsr2l	equ	0xFD9
   382                           
   383 ;; *************** function _initClock *****************
   384 ;; Defined at:
   385 ;;		line 32 in file "../src/PIC18/Clock.c"
   386 ;; Parameters:    Size  Location     Type
   387 ;;		None
   388 ;; Auto vars:     Size  Location     Type
   389 ;;		None
   390 ;; Return value:  Size  Location     Type
   391 ;;		None               void
   392 ;; Registers used:
   393 ;;		wreg, status,2, status,0, cstack
   394 ;; Tracked objects:
   395 ;;		On entry : 0/0
   396 ;;		On exit  : 0/0
   397 ;;		Unchanged: 0/0
   398 ;; Data sizes:     COMRAM   BANK0   BANK1   BANK2   BANK3   BANK4   BANK5
   399 ;;      Params:         0       0       0       0       0       0       0
   400 ;;      Locals:         0       0       0       0       0       0       0
   401 ;;      Temps:          0       0       0       0       0       0       0
   402 ;;      Totals:         0       0       0       0       0       0       0
   403 ;;Total ram usage:        0 bytes
   404 ;; Hardware stack levels used:    1
   405 ;; Hardware stack levels required when called:    4
   406 ;; This function calls:
   407 ;;		_OpenTimer0
   408 ;; This function is called by:
   409 ;;		_main
   410 ;; This function uses a non-reentrant model
   411 ;;
   412                           
   413                           	psect	text2
   414  0001A8                     __ptext2:
   415                           	opt stack 0
   416  0001A8                     _initClock:
   417                           	opt stack 26
   418                           
   419                           ;Clock.c: 33: clock = 0;
   420                           
   421                           ;incstack = 0
   422  0001A8  0E00               	movlw	0
   423  0001AA  6E39               	movwf	_clock,c	;volatile
   424  0001AC  0E00               	movlw	0
   425  0001AE  6E3A               	movwf	_clock+1,c	;volatile
   426  0001B0  0E00               	movlw	0
   427  0001B2  6E3B               	movwf	_clock+2,c	;volatile
   428  0001B4  0E00               	movlw	0
   429  0001B6  6E3C               	movwf	_clock+3,c	;volatile
   430                           
   431                           ;Clock.c: 34: INTCONbits.GIE = 1;
   432  0001B8  8EF2               	bsf	intcon,7,c	;volatile
   433                           
   434                           ;Clock.c: 35: OpenTimer0( 0b11111111 &
   435                           ;Clock.c: 36: 0b11111111 &
   436                           ;Clock.c: 37: 0b11011111 &
   437                           ;Clock.c: 38: 0b11110010);
   438  0001BA  0ED2               	movlw	210
   439  0001BC  ECA7  F000         	call	_OpenTimer0
   440  0001C0  0012               	return	
   441  0001C2                     __end_of_initClock:
   442                           	opt stack 0
   443                           tblptru	equ	0xFF8
   444                           tblptrh	equ	0xFF7
   445                           tblptrl	equ	0xFF6
   446                           tablat	equ	0xFF5
   447                           intcon	equ	0xFF2
   448                           postinc0	equ	0xFEE
   449                           wreg	equ	0xFE8
   450                           postdec1	equ	0xFE5
   451                           fsr1l	equ	0xFE1
   452                           indf2	equ	0xFDF
   453                           fsr2h	equ	0xFDA
   454                           fsr2l	equ	0xFD9
   455                           
   456 ;; *************** function _OpenTimer0 *****************
   457 ;; Defined at:
   458 ;;		line 18 in file "C:\Program Files\Microchip\xc8\v1.33\sources\pic18\plib\Timers\t0open.c"
   459 ;; Parameters:    Size  Location     Type
   460 ;;  config          1    wreg     unsigned char 
   461 ;; Auto vars:     Size  Location     Type
   462 ;;  config          1   14[COMRAM] unsigned char 
   463 ;; Return value:  Size  Location     Type
   464 ;;		None               void
   465 ;; Registers used:
   466 ;;		wreg, status,2, status,0
   467 ;; Tracked objects:
   468 ;;		On entry : 0/0
   469 ;;		On exit  : 0/0
   470 ;;		Unchanged: 0/0
   471 ;; Data sizes:     COMRAM   BANK0   BANK1   BANK2   BANK3   BANK4   BANK5
   472 ;;      Params:         0       0       0       0       0       0       0
   473 ;;      Locals:         1       0       0       0       0       0       0
   474 ;;      Temps:          0       0       0       0       0       0       0
   475 ;;      Totals:         1       0       0       0       0       0       0
   476 ;;Total ram usage:        1 bytes
   477 ;; Hardware stack levels used:    1
   478 ;; Hardware stack levels required when called:    3
   479 ;; This function calls:
   480 ;;		Nothing
   481 ;; This function is called by:
   482 ;;		_initClock
   483 ;; This function uses a non-reentrant model
   484 ;;
   485                           
   486                           	psect	text3
   487  00014E                     __ptext3:
   488                           	opt stack 0
   489  00014E                     _OpenTimer0:
   490                           	opt stack 26
   491                           
   492                           ;incstack = 0
   493                           ;OpenTimer0@config stored from wreg
   494  00014E  6E0F               	movwf	OpenTimer0@config,c
   495  000150  500F               	movf	OpenTimer0@config,w,c
   496  000152  0B7F               	andlw	127
   497  000154  6ED5               	movwf	4053,c	;volatile
   498  000156  0E00               	movlw	0
   499  000158  6ED7               	movwf	4055,c	;volatile
   500  00015A  0E00               	movlw	0
   501  00015C  6ED6               	movwf	4054,c	;volatile
   502  00015E  94F2               	bcf	intcon,2,c	;volatile
   503  000160  AE0F               	btfss	OpenTimer0@config,7,c
   504  000162  D002               	goto	l267
   505  000164  8AF2               	bsf	intcon,5,c	;volatile
   506  000166  D001               	goto	l268
   507  000168                     l267:
   508  000168  9AF2               	bcf	intcon,5,c	;volatile
   509  00016A                     l268:
   510  00016A  8ED5               	bsf	4053,7,c	;volatile
   511  00016C  0012               	return	
   512  00016E                     __end_of_OpenTimer0:
   513                           	opt stack 0
   514                           tblptru	equ	0xFF8
   515                           tblptrh	equ	0xFF7
   516                           tblptrl	equ	0xFF6
   517                           tablat	equ	0xFF5
   518                           intcon	equ	0xFF2
   519                           postinc0	equ	0xFEE
   520                           wreg	equ	0xFE8
   521                           postdec1	equ	0xFE5
   522                           fsr1l	equ	0xFE1
   523                           indf2	equ	0xFDF
   524                           fsr2h	equ	0xFDA
   525                           fsr2l	equ	0xFD9
   526                           
   527 ;; *************** function _init7Segment *****************
   528 ;; Defined at:
   529 ;;		line 31 in file "../src/PIC18/SevenSeg.c"
   530 ;; Parameters:    Size  Location     Type
   531 ;;  data            2   14[COMRAM] PTR struct SevenSegmentD
   532 ;;		 -> main@sevenSegData(6), 
   533 ;; Auto vars:     Size  Location     Type
   534 ;;		None
   535 ;; Return value:  Size  Location     Type
   536 ;;		None               void
   537 ;; Registers used:
   538 ;;		wreg, fsr2l, fsr2h
   539 ;; Tracked objects:
   540 ;;		On entry : 0/0
   541 ;;		On exit  : 0/0
   542 ;;		Unchanged: 0/0
   543 ;; Data sizes:     COMRAM   BANK0   BANK1   BANK2   BANK3   BANK4   BANK5
   544 ;;      Params:         2       0       0       0       0       0       0
   545 ;;      Locals:         0       0       0       0       0       0       0
   546 ;;      Temps:          0       0       0       0       0       0       0
   547 ;;      Totals:         2       0       0       0       0       0       0
   548 ;;Total ram usage:        2 bytes
   549 ;; Hardware stack levels used:    1
   550 ;; Hardware stack levels required when called:    3
   551 ;; This function calls:
   552 ;;		Nothing
   553 ;; This function is called by:
   554 ;;		_main
   555 ;; This function uses a non-reentrant model
   556 ;;
   557                           
   558                           	psect	text4
   559  0001D2                     __ptext4:
   560                           	opt stack 0
   561  0001D2                     _init7Segment:
   562                           	opt stack 27
   563                           
   564                           ;SevenSeg.c: 32: data->state = _7SEG_INIT;
   565                           
   566                           ;incstack = 0
   567  0001D2  C00F  FFD9         	movff	init7Segment@data,fsr2l
   568  0001D6  C010  FFDA         	movff	init7Segment@data+1,fsr2h
   569  0001DA  0E00               	movlw	0
   570  0001DC  6EDF               	movwf	indf2,c
   571  0001DE  0012               	return	
   572  0001E0                     __end_of_init7Segment:
   573                           	opt stack 0
   574                           tblptru	equ	0xFF8
   575                           tblptrh	equ	0xFF7
   576                           tblptrl	equ	0xFF6
   577                           tablat	equ	0xFF5
   578                           intcon	equ	0xFF2
   579                           postinc0	equ	0xFEE
   580                           wreg	equ	0xFE8
   581                           postdec1	equ	0xFE5
   582                           fsr1l	equ	0xFE1
   583                           indf2	equ	0xFDF
   584                           fsr2h	equ	0xFDA
   585                           fsr2l	equ	0xFD9
   586                           
   587 ;; *************** function _configureLED *****************
   588 ;; Defined at:
   589 ;;		line 22 in file "../src/PIC18/Blinky.c"
   590 ;; Parameters:    Size  Location     Type
   591 ;;		None
   592 ;; Auto vars:     Size  Location     Type
   593 ;;		None
   594 ;; Return value:  Size  Location     Type
   595 ;;		None               void
   596 ;; Registers used:
   597 ;;		None
   598 ;; Tracked objects:
   599 ;;		On entry : 0/0
   600 ;;		On exit  : 0/0
   601 ;;		Unchanged: 0/0
   602 ;; Data sizes:     COMRAM   BANK0   BANK1   BANK2   BANK3   BANK4   BANK5
   603 ;;      Params:         0       0       0       0       0       0       0
   604 ;;      Locals:         0       0       0       0       0       0       0
   605 ;;      Temps:          0       0       0       0       0       0       0
   606 ;;      Totals:         0       0       0       0       0       0       0
   607 ;;Total ram usage:        0 bytes
   608 ;; Hardware stack levels used:    1
   609 ;; Hardware stack levels required when called:    3
   610 ;; This function calls:
   611 ;;		Nothing
   612 ;; This function is called by:
   613 ;;		_main
   614 ;;		_ledSM
   615 ;; This function uses a non-reentrant model
   616 ;;
   617                           
   618                           	psect	text5
   619  0001E0                     __ptext5:
   620                           	opt stack 0
   621  0001E0                     _configureLED:
   622                           	opt stack 27
   623                           
   624                           ;Blinky.c: 23: TRISCbits.TRISC0 = 0;
   625                           
   626                           ;incstack = 0
   627  0001E0  9094               	bcf	3988,0,c	;volatile
   628  0001E2  0012               	return	
   629  0001E4                     __end_of_configureLED:
   630                           	opt stack 0
   631                           tblptru	equ	0xFF8
   632                           tblptrh	equ	0xFF7
   633                           tblptrl	equ	0xFF6
   634                           tablat	equ	0xFF5
   635                           intcon	equ	0xFF2
   636                           postinc0	equ	0xFEE
   637                           wreg	equ	0xFE8
   638                           postdec1	equ	0xFE5
   639                           fsr1l	equ	0xFE1
   640                           indf2	equ	0xFDF
   641                           fsr2h	equ	0xFDA
   642                           fsr2l	equ	0xFD9
   643                           
   644 ;; *************** function _OpenUSART *****************
   645 ;; Defined at:
   646 ;;		line 73 in file "C:\Program Files\Microchip\xc8\v1.33\sources\pic18\plib\USART\uopen.c"
   647 ;; Parameters:    Size  Location     Type
   648 ;;  config          1    wreg     unsigned char 
   649 ;;  spbrg           2   14[COMRAM] unsigned int 
   650 ;; Auto vars:     Size  Location     Type
   651 ;;  config          1   19[COMRAM] unsigned char 
   652 ;; Return value:  Size  Location     Type
   653 ;;		None               void
   654 ;; Registers used:
   655 ;;		wreg, status,2
   656 ;; Tracked objects:
   657 ;;		On entry : 0/0
   658 ;;		On exit  : 0/0
   659 ;;		Unchanged: 0/0
   660 ;; Data sizes:     COMRAM   BANK0   BANK1   BANK2   BANK3   BANK4   BANK5
   661 ;;      Params:         2       0       0       0       0       0       0
   662 ;;      Locals:         1       0       0       0       0       0       0
   663 ;;      Temps:          3       0       0       0       0       0       0
   664 ;;      Totals:         6       0       0       0       0       0       0
   665 ;;Total ram usage:        6 bytes
   666 ;; Hardware stack levels used:    1
   667 ;; Hardware stack levels required when called:    3
   668 ;; This function calls:
   669 ;;		Nothing
   670 ;; This function is called by:
   671 ;;		_main
   672 ;; This function uses a non-reentrant model
   673 ;;
   674                           
   675                           	psect	text6
   676  000088                     __ptext6:
   677                           	opt stack 0
   678  000088                     _OpenUSART:
   679                           	opt stack 27
   680                           
   681                           ;incstack = 0
   682                           ;OpenUSART@config stored from wreg
   683  000088  6E14               	movwf	OpenUSART@config,c
   684  00008A  0E00               	movlw	0
   685  00008C  6EAC               	movwf	4012,c	;volatile
   686  00008E  0E00               	movlw	0
   687  000090  6EAB               	movwf	4011,c	;volatile
   688  000092  B014               	btfsc	OpenUSART@config,0,c
   689  000094  88AC               	bsf	4012,4,c	;volatile
   690  000096  A214               	btfss	OpenUSART@config,1,c
   691  000098  D002               	goto	l942
   692  00009A  8CAC               	bsf	4012,6,c	;volatile
   693  00009C  8CAB               	bsf	4011,6,c	;volatile
   694  00009E                     l942:
   695  00009E  B414               	btfsc	OpenUSART@config,2,c
   696  0000A0  8EAC               	bsf	4012,7,c	;volatile
   697  0000A2  A614               	btfss	OpenUSART@config,3,c
   698  0000A4  D002               	goto	l293
   699  0000A6  88AB               	bsf	4011,4,c	;volatile
   700  0000A8  D001               	goto	l950
   701  0000AA                     l293:
   702  0000AA  8AAB               	bsf	4011,5,c	;volatile
   703  0000AC                     l950:
   704  0000AC  B814               	btfsc	OpenUSART@config,4,c
   705  0000AE  84AC               	bsf	4012,2,c	;volatile
   706  0000B0  989E               	bcf	3998,4,c	;volatile
   707  0000B2  BA14               	btfsc	OpenUSART@config,5,c
   708  0000B4  86AB               	bsf	4011,3,c	;volatile
   709  0000B6  AC14               	btfss	OpenUSART@config,6,c
   710  0000B8  D002               	goto	l297
   711  0000BA  8A9D               	bsf	3997,5,c	;volatile
   712  0000BC  D001               	goto	l298
   713  0000BE                     l297:
   714  0000BE  9A9D               	bcf	3997,5,c	;volatile
   715  0000C0                     l298:
   716  0000C0  9A9E               	bcf	3998,5,c	;volatile
   717  0000C2  AE14               	btfss	OpenUSART@config,7,c
   718  0000C4  D002               	goto	l299
   719  0000C6  889D               	bsf	3997,4,c	;volatile
   720  0000C8  D001               	goto	l300
   721  0000CA                     l299:
   722  0000CA  989D               	bcf	3997,4,c	;volatile
   723  0000CC                     l300:
   724  0000CC  C00F  FFAF         	movff	OpenUSART@spbrg,4015	;volatile
   725  0000D0  C010  F011         	movff	OpenUSART@spbrg+1,??_OpenUSART
   726  0000D4  C011  F012         	movff	??_OpenUSART,??_OpenUSART+1
   727  0000D8  6A13               	clrf	(??_OpenUSART+2)& (0+255),c
   728  0000DA  5012               	movf	??_OpenUSART+1,w,c
   729  0000DC  6EB0               	movwf	4016,c	;volatile
   730  0000DE  8AAC               	bsf	4012,5,c	;volatile
   731  0000E0  8EAB               	bsf	4011,7,c	;volatile
   732  0000E2  9C94               	bcf	3988,6,c	;volatile
   733  0000E4  8E94               	bsf	3988,7,c	;volatile
   734  0000E6  B8AC               	btfsc	4012,4,c	;volatile
   735  0000E8  BEAC               	btfsc	4012,7,c	;volatile
   736  0000EA  D001               	goto	l302
   737  0000EC  8C94               	bsf	3988,6,c	;volatile
   738  0000EE                     l302:
   739  0000EE  0012               	return	
   740  0000F0                     __end_of_OpenUSART:
   741                           	opt stack 0
   742                           tblptru	equ	0xFF8
   743                           tblptrh	equ	0xFF7
   744                           tblptrl	equ	0xFF6
   745                           tablat	equ	0xFF5
   746                           intcon	equ	0xFF2
   747                           postinc0	equ	0xFEE
   748                           wreg	equ	0xFE8
   749                           postdec1	equ	0xFE5
   750                           fsr1l	equ	0xFE1
   751                           indf2	equ	0xFDF
   752                           fsr2h	equ	0xFDA
   753                           fsr2l	equ	0xFD9
   754                           
   755 ;; *************** function _interruptIsr *****************
   756 ;; Defined at:
   757 ;;		line 4 in file "../src/PIC18/Interrupt.c"
   758 ;; Parameters:    Size  Location     Type
   759 ;;		None
   760 ;; Auto vars:     Size  Location     Type
   761 ;;		None
   762 ;; Return value:  Size  Location     Type
   763 ;;		None               void
   764 ;; Registers used:
   765 ;;		wreg, status,2, status,0, cstack
   766 ;; Tracked objects:
   767 ;;		On entry : 0/0
   768 ;;		On exit  : 0/0
   769 ;;		Unchanged: 0/0
   770 ;; Data sizes:     COMRAM   BANK0   BANK1   BANK2   BANK3   BANK4   BANK5
   771 ;;      Params:         0       0       0       0       0       0       0
   772 ;;      Locals:         0       0       0       0       0       0       0
   773 ;;      Temps:         14       0       0       0       0       0       0
   774 ;;      Totals:        14       0       0       0       0       0       0
   775 ;;Total ram usage:       14 bytes
   776 ;; Hardware stack levels used:    1
   777 ;; Hardware stack levels required when called:    2
   778 ;; This function calls:
   779 ;;		_timer0Isr
   780 ;; This function is called by:
   781 ;;		Interrupt level 2
   782 ;; This function uses a non-reentrant model
   783 ;;
   784                           
   785                           	psect	intcode
   786  000008                     __pintcode:
   787                           	opt stack 0
   788  000008                     _interruptIsr:
   789                           	opt stack 26
   790                           
   791                           ;incstack = 0
   792  000008  CFFA F001          	movff	pclath,??_interruptIsr
   793  00000C  CFFB F002          	movff	pclatu,??_interruptIsr+1
   794  000010  CFE9 F003          	movff	fsr0l,??_interruptIsr+2
   795  000014  ED0E  F000         	call	int_func,f	;refresh shadow registers
   796                           pclatu	equ	0xFFB
   797                           pclath	equ	0xFFA
   798                           tblptru	equ	0xFF8
   799                           tblptrh	equ	0xFF7
   800                           tblptrl	equ	0xFF6
   801                           tablat	equ	0xFF5
   802                           intcon	equ	0xFF2
   803                           postinc0	equ	0xFEE
   804                           fsr0l	equ	0xFE9
   805                           wreg	equ	0xFE8
   806                           postdec1	equ	0xFE5
   807                           fsr1l	equ	0xFE1
   808                           indf2	equ	0xFDF
   809                           fsr2h	equ	0xFDA
   810                           fsr2l	equ	0xFD9
   811                           
   812                           	psect	intcode_body
   813  00001C                     __pintcode_body:
   814                           	opt stack 26
   815  00001C                     int_func:
   816                           	opt stack 26
   817  00001C  0006               	pop		; remove dummy address from shadow register refresh
   818  00001E  CFEA F004          	movff	fsr0h,??_interruptIsr+3
   819  000022  CFE1 F005          	movff	fsr1l,??_interruptIsr+4
   820  000026  CFE2 F006          	movff	fsr1h,??_interruptIsr+5
   821  00002A  CFD9 F007          	movff	fsr2l,??_interruptIsr+6
   822  00002E  CFDA F008          	movff	fsr2h,??_interruptIsr+7
   823  000032  CFF3 F009          	movff	prodl,??_interruptIsr+8
   824  000036  CFF4 F00A          	movff	prodh,??_interruptIsr+9
   825  00003A  CFF6 F00B          	movff	tblptrl,??_interruptIsr+10
   826  00003E  CFF7 F00C          	movff	tblptrh,??_interruptIsr+11
   827  000042  CFF8 F00D          	movff	tblptru,??_interruptIsr+12
   828  000046  CFF5 F00E          	movff	tablat,??_interruptIsr+13
   829                           
   830                           ;Interrupt.c: 5: timer0Isr();
   831  00004A  EC93  F000         	call	_timer0Isr	;wreg free
   832  00004E  C00E  FFF5         	movff	??_interruptIsr+13,tablat
   833  000052  C00D  FFF8         	movff	??_interruptIsr+12,tblptru
   834  000056  C00C  FFF7         	movff	??_interruptIsr+11,tblptrh
   835  00005A  C00B  FFF6         	movff	??_interruptIsr+10,tblptrl
   836  00005E  C00A  FFF4         	movff	??_interruptIsr+9,prodh
   837  000062  C009  FFF3         	movff	??_interruptIsr+8,prodl
   838  000066  C008  FFDA         	movff	??_interruptIsr+7,fsr2h
   839  00006A  C007  FFD9         	movff	??_interruptIsr+6,fsr2l
   840  00006E  C006  FFE2         	movff	??_interruptIsr+5,fsr1h
   841  000072  C005  FFE1         	movff	??_interruptIsr+4,fsr1l
   842  000076  C004  FFEA         	movff	??_interruptIsr+3,fsr0h
   843  00007A  C003  FFE9         	movff	??_interruptIsr+2,fsr0l
   844  00007E  C002  FFFB         	movff	??_interruptIsr+1,pclatu
   845  000082  C001  FFFA         	movff	??_interruptIsr,pclath
   846  000086  0011               	retfie		f
   847  000088                     __end_of_interruptIsr:
   848                           	opt stack 0
   849                           pclatu	equ	0xFFB
   850                           pclath	equ	0xFFA
   851                           tblptru	equ	0xFF8
   852                           tblptrh	equ	0xFF7
   853                           tblptrl	equ	0xFF6
   854                           tablat	equ	0xFF5
   855                           prodh	equ	0xFF4
   856                           prodl	equ	0xFF3
   857                           intcon	equ	0xFF2
   858                           postinc0	equ	0xFEE
   859                           fsr0h	equ	0xFEA
   860                           fsr0l	equ	0xFE9
   861                           wreg	equ	0xFE8
   862                           postdec1	equ	0xFE5
   863                           fsr1h	equ	0xFE2
   864                           fsr1l	equ	0xFE1
   865                           indf2	equ	0xFDF
   866                           fsr2h	equ	0xFDA
   867                           fsr2l	equ	0xFD9
   868                           
   869 ;; *************** function _timer0Isr *****************
   870 ;; Defined at:
   871 ;;		line 8 in file "../src/PIC18/Clock.c"
   872 ;; Parameters:    Size  Location     Type
   873 ;;		None
   874 ;; Auto vars:     Size  Location     Type
   875 ;;		None
   876 ;; Return value:  Size  Location     Type
   877 ;;		None               void
   878 ;; Registers used:
   879 ;;		wreg, status,2, status,0, cstack
   880 ;; Tracked objects:
   881 ;;		On entry : 0/0
   882 ;;		On exit  : 0/0
   883 ;;		Unchanged: 0/0
   884 ;; Data sizes:     COMRAM   BANK0   BANK1   BANK2   BANK3   BANK4   BANK5
   885 ;;      Params:         0       0       0       0       0       0       0
   886 ;;      Locals:         0       0       0       0       0       0       0
   887 ;;      Temps:          0       0       0       0       0       0       0
   888 ;;      Totals:         0       0       0       0       0       0       0
   889 ;;Total ram usage:        0 bytes
   890 ;; Hardware stack levels used:    1
   891 ;; Hardware stack levels required when called:    1
   892 ;; This function calls:
   893 ;;		_clearTimer0Overflowed
   894 ;; This function is called by:
   895 ;;		_interruptIsr
   896 ;; This function uses a non-reentrant model
   897 ;;
   898                           
   899                           	psect	text8
   900  000126                     __ptext8:
   901                           	opt stack 0
   902  000126                     _timer0Isr:
   903                           	opt stack 26
   904                           
   905                           ;incstack = 0
   906  000126  6F43               	movwf	_workingReg,b	;# 
   907  000128  CFD8 F03F          	movff	status,_statusReg	;# 
   908  00012C  CFE0 F03E          	movff	bsr,_bankSelectReg	;# 
   909  000130  CFFF F042          	movff	tosu,_tosUp	;# 
   910  000134  CFFE F040          	movff	tosh,_tosHi	;# 
   911  000138  CFFD F041          	movff	tosl,_tosLo	;# 
   912                           
   913                           ;Clock.c: 28: clock++;
   914  00013C  0E01               	movlw	1
   915  00013E  2639               	addwf	_clock,f,c	;volatile
   916  000140  0E00               	movlw	0
   917  000142  223A               	addwfc	_clock+1,f,c	;volatile
   918  000144  223B               	addwfc	_clock+2,f,c	;volatile
   919  000146  223C               	addwfc	_clock+3,f,c	;volatile
   920                           
   921                           ;Clock.c: 29: clearTimer0Overflowed();
   922  000148  ECF2  F000         	call	_clearTimer0Overflowed	;wreg free
   923  00014C  0012               	return	
   924  00014E                     __end_of_timer0Isr:
   925                           	opt stack 0
   926                           tosu	equ	0xFFF
   927                           tosh	equ	0xFFE
   928                           tosl	equ	0xFFD
   929                           pclatu	equ	0xFFB
   930                           pclath	equ	0xFFA
   931                           tblptru	equ	0xFF8
   932                           tblptrh	equ	0xFF7
   933                           tblptrl	equ	0xFF6
   934                           tablat	equ	0xFF5
   935                           prodh	equ	0xFF4
   936                           prodl	equ	0xFF3
   937                           intcon	equ	0xFF2
   938                           postinc0	equ	0xFEE
   939                           fsr0h	equ	0xFEA
   940                           fsr0l	equ	0xFE9
   941                           wreg	equ	0xFE8
   942                           postdec1	equ	0xFE5
   943                           fsr1h	equ	0xFE2
   944                           fsr1l	equ	0xFE1
   945                           bsr	equ	0xFE0
   946                           indf2	equ	0xFDF
   947                           fsr2h	equ	0xFDA
   948                           fsr2l	equ	0xFD9
   949                           status	equ	0xFD8
   950                           
   951 ;; *************** function _clearTimer0Overflowed *****************
   952 ;; Defined at:
   953 ;;		line 62 in file "../src/PIC18/Clock.c"
   954 ;; Parameters:    Size  Location     Type
   955 ;;		None
   956 ;; Auto vars:     Size  Location     Type
   957 ;;		None
   958 ;; Return value:  Size  Location     Type
   959 ;;		None               void
   960 ;; Registers used:
   961 ;;		None
   962 ;; Tracked objects:
   963 ;;		On entry : 0/0
   964 ;;		On exit  : 0/0
   965 ;;		Unchanged: 0/0
   966 ;; Data sizes:     COMRAM   BANK0   BANK1   BANK2   BANK3   BANK4   BANK5
   967 ;;      Params:         0       0       0       0       0       0       0
   968 ;;      Locals:         0       0       0       0       0       0       0
   969 ;;      Temps:          0       0       0       0       0       0       0
   970 ;;      Totals:         0       0       0       0       0       0       0
   971 ;;Total ram usage:        0 bytes
   972 ;; Hardware stack levels used:    1
   973 ;; This function calls:
   974 ;;		Nothing
   975 ;; This function is called by:
   976 ;;		_timer0Isr
   977 ;; This function uses a non-reentrant model
   978 ;;
   979                           
   980                           	psect	text9
   981  0001E4                     __ptext9:
   982                           	opt stack 0
   983  0001E4                     _clearTimer0Overflowed:
   984                           	opt stack 26
   985                           
   986                           ;Clock.c: 63: INTCONbits.TMR0IF = 0;
   987                           
   988                           ;incstack = 0
   989  0001E4  94F2               	bcf	intcon,2,c	;volatile
   990  0001E6  0012               	return	
   991  0001E8                     __end_of_clearTimer0Overflowed:
   992                           	opt stack 0
   993  0000                     tosu	equ	0xFFF
   994                           tosh	equ	0xFFE
   995                           tosl	equ	0xFFD
   996                           pclatu	equ	0xFFB
   997                           pclath	equ	0xFFA
   998                           tblptru	equ	0xFF8
   999                           tblptrh	equ	0xFF7
  1000                           tblptrl	equ	0xFF6
  1001                           tablat	equ	0xFF5
  1002                           prodh	equ	0xFF4
  1003                           prodl	equ	0xFF3
  1004                           intcon	equ	0xFF2
  1005                           postinc0	equ	0xFEE
  1006                           fsr0h	equ	0xFEA
  1007                           fsr0l	equ	0xFE9
  1008                           wreg	equ	0xFE8
  1009                           postdec1	equ	0xFE5
  1010                           fsr1h	equ	0xFE2
  1011                           fsr1l	equ	0xFE1
  1012                           bsr	equ	0xFE0
  1013                           indf2	equ	0xFDF
  1014                           fsr2h	equ	0xFDA
  1015                           fsr2l	equ	0xFD9
  1016                           status	equ	0xFD8
  1017                           tosu	equ	0xFFF
  1018                           tosh	equ	0xFFE
  1019                           tosl	equ	0xFFD
  1020                           pclatu	equ	0xFFB
  1021                           pclath	equ	0xFFA
  1022                           tblptru	equ	0xFF8
  1023                           tblptrh	equ	0xFF7
  1024                           tblptrl	equ	0xFF6
  1025                           tablat	equ	0xFF5
  1026                           prodh	equ	0xFF4
  1027                           prodl	equ	0xFF3
  1028                           intcon	equ	0xFF2
  1029                           postinc0	equ	0xFEE
  1030                           fsr0h	equ	0xFEA
  1031                           fsr0l	equ	0xFE9
  1032                           wreg	equ	0xFE8
  1033                           postdec1	equ	0xFE5
  1034                           fsr1h	equ	0xFE2
  1035                           fsr1l	equ	0xFE1
  1036                           bsr	equ	0xFE0
  1037                           indf2	equ	0xFDF
  1038                           fsr2h	equ	0xFDA
  1039                           fsr2l	equ	0xFD9
  1040                           status	equ	0xFD8
  1041                           
  1042                           	psect	rparam
  1043  0000                     tosu	equ	0xFFF
  1044                           tosh	equ	0xFFE
  1045                           tosl	equ	0xFFD
  1046                           pclatu	equ	0xFFB
  1047                           pclath	equ	0xFFA
  1048                           tblptru	equ	0xFF8
  1049                           tblptrh	equ	0xFF7
  1050                           tblptrl	equ	0xFF6
  1051                           tablat	equ	0xFF5
  1052                           prodh	equ	0xFF4
  1053                           prodl	equ	0xFF3
  1054                           intcon	equ	0xFF2
  1055                           postinc0	equ	0xFEE
  1056                           fsr0h	equ	0xFEA
  1057                           fsr0l	equ	0xFE9
  1058                           wreg	equ	0xFE8
  1059                           postdec1	equ	0xFE5
  1060                           fsr1h	equ	0xFE2
  1061                           fsr1l	equ	0xFE1
  1062                           bsr	equ	0xFE0
  1063                           indf2	equ	0xFDF
  1064                           fsr2h	equ	0xFDA
  1065                           fsr2l	equ	0xFD9
  1066                           status	equ	0xFD8


Data Sizes:
    Strings     0
    Constant    0
    Data        16
    BSS         11
    Persistent  0
    Stack       0

Auto Spaces:
    Space          Size  Autos    Used
    COMRAM          127     40      67
    BANK0           128      0       0
    BANK1           256      0       0
    BANK2           256      0       0
    BANK3           256      0       0
    BANK4           256      0       0
    BANK5           256      0       0

Pointer List with Targets:

    init7Segment@data	PTR struct SevenSegmentData size(2) Largest target is 6
		 -> main@sevenSegData(COMRAM[6]), 

    initUsartLoopback@loopbackData	PTR struct LoopbackData size(2) Largest target is 2
		 -> main@loopbackData(COMRAM[2]), 


Critical Paths under _main in COMRAM

    _main->_OpenUSART
    _initClock->_OpenTimer0

Critical Paths under _interruptIsr in COMRAM

    None.

Critical Paths under _main in BANK0

    None.

Critical Paths under _interruptIsr in BANK0

    None.

Critical Paths under _main in BANK1

    None.

Critical Paths under _interruptIsr in BANK1

    None.

Critical Paths under _main in BANK2

    None.

Critical Paths under _interruptIsr in BANK2

    None.

Critical Paths under _main in BANK3

    None.

Critical Paths under _interruptIsr in BANK3

    None.

Critical Paths under _main in BANK4

    None.

Critical Paths under _interruptIsr in BANK4

    None.

Critical Paths under _main in BANK5

    None.

Critical Paths under _interruptIsr in BANK5

    None.

Call Graph Tables:

 ---------------------------------------------------------------------------------
 (Depth) Function   	        Calls       Base Space   Used Autos Params    Refs
 ---------------------------------------------------------------------------------
 (0) _main                                                20    15      5     384
                                             20 COMRAM    20    15      5
                          _OpenUSART
                       _configureLED
                       _init7Segment
                          _initClock
                  _initUsartLoopback
 ---------------------------------------------------------------------------------
 (1) _initUsartLoopback                                    2     0      2      73
                                             14 COMRAM     2     0      2
 ---------------------------------------------------------------------------------
 (1) _initClock                                            0     0      0      30
                         _OpenTimer0
 ---------------------------------------------------------------------------------
 (2) _OpenTimer0                                           1     1      0      30
                                             14 COMRAM     1     1      0
 ---------------------------------------------------------------------------------
 (1) _init7Segment                                         2     0      2      58
                                             14 COMRAM     2     0      2
 ---------------------------------------------------------------------------------
 (1) _configureLED                                         0     0      0       0
 ---------------------------------------------------------------------------------
 (1) _OpenUSART                                            6     4      2     193
                                             14 COMRAM     6     4      2
 ---------------------------------------------------------------------------------
 Estimated maximum stack depth 2
 ---------------------------------------------------------------------------------
 (Depth) Function   	        Calls       Base Space   Used Autos Params    Refs
 ---------------------------------------------------------------------------------
 (3) _interruptIsr                                        14    14      0       0
                                              0 COMRAM    14    14      0
                          _timer0Isr
 ---------------------------------------------------------------------------------
 (4) _timer0Isr                                            0     0      0       0
              _clearTimer0Overflowed
 ---------------------------------------------------------------------------------
 (5) _clearTimer0Overflowed                                0     0      0       0
 ---------------------------------------------------------------------------------
 Estimated maximum stack depth 5
 ---------------------------------------------------------------------------------

 Call Graph Graphs:

 _main (ROOT)
   _OpenUSART
   _configureLED
   _init7Segment
   _initClock
     _OpenTimer0
   _initUsartLoopback

 _interruptIsr (ROOT)
   _timer0Isr
     _clearTimer0Overflowed

 Address spaces:
Name               Size   Autos  Total    Cost      Usage
BIGRAM             5FF      0       0      17        0.0%
EEDATA             100      0       0       0        0.0%
BITBANK5           100      0       0      16        0.0%
BANK5              100      0       0      14        0.0%
BITBANK4           100      0       0      12        0.0%
BANK4              100      0       0      13        0.0%
BITBANK3           100      0       0      10        0.0%
BANK3              100      0       0      11        0.0%
BITBANK2           100      0       0       8        0.0%
BANK2              100      0       0       9        0.0%
BITBANK1           100      0       0       6        0.0%
BANK1              100      0       0       7        0.0%
BITBANK0            80      0       0       4        0.0%
BANK0               80      0       0       5        0.0%
BITCOMRAM           7F      0       0       0        0.0%
COMRAM              7F     28      43       1       52.8%
BITSFR               0      0       0      40        0.0%
SFR                  0      0       0      40        0.0%
STACK                0      0       0       2        0.0%
NULL                 0      0       0       0        0.0%
ABS                  0      0      43      15        0.0%
DATA                 0      0      43       3        0.0%
CODE                 0      0       0       0        0.0%


Microchip Technology PIC18 Macro Assembler V1.33 build 59893 
Symbol Table                                                                                   Mon Nov 10 09:26:39 2014

                 ?_configureLED 0001                              BSR 000FE0                     _SSPSTATbits 000FC7  
                            l61 01A6                              l58 01A4                             l300 00CC  
                           l302 00EE                             TOSH 000FFE                             l267 0168  
                           l268 016A                             l293 00AA                             TOSL 000FFD  
                           l297 00BE                             l298 00C0                             l299 00CA  
                           TOSU 000FFF                             l950 00AC                             l942 009E  
                           wreg 000FE8                    __CFG_LVP$OFF 000000                    __CFG_WDT$OFF 000000  
                 __CFG_DEBUG$ON 000000                            _PIE1 000F9D                    __CFG_PWRT$ON 000000  
                          _main 018C                            fsr0h 000FEA                            fsr1h 000FE2  
                          fsr0l 000FE9                            fsr2h 000FDA                            fsr1l 000FE1  
                          indf2 000FDF                            fsr2l 000FD9                            pclat 000FFA  
                          prodh 000FF4                            prodl 000FF3                            start 0018  
                ??_configureLED 000F                    main@led2Data 001A         ??_clearTimer0Overflowed 0001  
                 ?_init7Segment 000F                           STATUS 000FD8                           ?_main 0015  
                         _T0CON 000FD5                           _RCREG 000FAE                           _RCSTA 000FAB  
                         _TMR0H 000FD7                           _TMR0L 000FD6                           _SPBRG 000FAF  
                         _TXREG 000FAD                           _TXSTA 000FAC                 _sevenSegPattern 0029  
                         _clock 0039                           _tosHi 0040                           _tosLo 0041  
                         _tosUp 0042                           tablat 000FF5                 __initialization 00F0  
                ??_init7Segment 0011                    __end_of_main 01A8                          ??_main 001A  
                 __activetblptr 000002                      _OpenTimer0 014E                          _SPBRGH 000FB0  
                        _SSPBUF 000FC9              __size_of_OpenUSART 0068                OpenTimer0@config 000F  
                        clear_0 00F6                    __pdataCOMRAM 0029                          tblptrh 000FF7  
                        tblptrl 000FF6                          tblptru 000FF8            __end_of_configureLED 01E4  
                    __accesstop 0080         __end_of__initialization 011C                  __pcstackCOMRAM 0001  
                 ?_interruptIsr 0001               __end_of_OpenUSART 00F0            __end_of_init7Segment 01E0  
                   ?_OpenTimer0 0001              __size_of_initClock 001A                  ??_interruptIsr 0001  
                 _bankSelectReg 003E  __size_of_clearTimer0Overflowed 0004   __end_of_clearTimer0Overflowed 01E8  
            __size_of_timer0Isr 0028                         _SSPCON1 000FC6                         _SSPSTAT 000FC7  
                       __Hparam 0000                         __Lparam 0000                         __pcinit 00F0  
                       __ramtop 0600             __size_of_OpenTimer0 0020                         __ptext0 018C  
                       __ptext1 016E                         __ptext2 01A8                         __ptext3 014E  
                       __ptext4 01D2                         __ptext5 01E0                         __ptext6 0088  
                       __ptext8 0126                         __ptext9 01E4               __end_of_initClock 01C2  
                     _T0CONbits 000FD5           __size_of_configureLED 0004                  __pintcode_body 001C  
          end_of_initialization 011C                   __Lmediumconst 0000                         int_func 001C  
             __end_of_timer0Isr 014E               _initUsartLoopback 016E                       _RCSTAbits 000FAB  
                       postdec1 000FE5              ?_initUsartLoopback 000F                    _configureLED 01E0  
                       postinc0 000FEE                       _PORTCbits 000F82                       _PORTDbits 000F83  
           ??_initUsartLoopback 0011           __size_of_init7Segment 000E                init7Segment@data 000F  
                     _TRISAbits 000F92                       _TRISCbits 000F94                       _TRISDbits 000F95  
          __end_of_interruptIsr 0088                       _TXSTAbits 000FAC       __end_of_initUsartLoopback 018C  
                  _init7Segment 01D2                   __pidataCOMRAM 01C2                      _workingReg 0043  
           start_initialization 00F0                    ??_OpenTimer0 000F                       _OpenUSART 0088  
              __CFG_OSC$INTIO67 000000              __end_of_OpenTimer0 016E                     __pbssCOMRAM 0039  
 initUsartLoopback@loopbackData 000F                      ?_OpenUSART 000F      __size_of_initUsartLoopback 001E  
              main@loopbackData 0027                       __pintcode 0008           _clearTimer0Overflowed 01E4  
         __size_of_interruptIsr 0080                       _initClock 01A8                        _PIE1bits 000F9D  
                      _PIR1bits 000F9E                       _timer0Isr 0126                    _interruptIsr 0008  
              main@sevenSegData 0021                       _statusReg 003F                      ?_initClock 0001  
                     copy_data0 0110                     ??_OpenUSART 0011                 OpenUSART@config 0014  
                      __Hrparam 0000                        __Lrparam 0000                      ?_timer0Isr 0001  
        ?_clearTimer0Overflowed 0001                   __size_of_main 001C                        main@argc 0015  
                      main@argv 0017                      _INTCONbits 000FF2                  OpenUSART@spbrg 000F  
                   ??_initClock 0010                        intlevel2 0000                      _OSCCONbits 000FD3  
                   ??_timer0Isr 0001                     _SSPCON1bits 000FC6                    _USART_Status 003D  
